; Function Attrs: nounwind uwtable
define i32 @Java_sun_nio_fs_UnixNativeDispatcher_getlinelen(ptr noundef %0, ptr nocapture noundef readnone %1, i64 noundef %2) local_unnamed_addr #0 {
  %4 = alloca i64, align 8
  %5 = alloca ptr, align 8
  %6 = inttoptr i64 %2 to ptr
  store i64 0, ptr %4, align 8
  store ptr null, ptr %5, align 8
  %7 = call i64 @getline(ptr noundef nonnull %5, ptr noundef nonnull %4, ptr noundef %6) #11
  %8 = tail call ptr @__errno_location() #12
  %9 = load i32, ptr %8, align 4
  %10 = load ptr, ptr %5, align 8
  %.not = icmp eq ptr %10, null
  br i1 %.not, label %12, label %11

11:                                               ; preds = %3
  call void @free(ptr noundef nonnull %10) #11
  br label %12

12:                                               ; preds = %11, %3
  %13 = call i32 @feof(ptr noundef %6) #11
  %.not10 = icmp eq i32 %13, 0
  br i1 %.not10, label %14, label %26

14:                                               ; preds = %12
  %15 = icmp eq i64 %7, -1
  br i1 %15, label %16, label %throwUnixException.exit

16:                                               ; preds = %14
  %17 = call ptr (ptr, ptr, ptr, ...) @JNU_NewObjectByName(ptr noundef %0, ptr noundef nonnull @.str.46, ptr noundef nonnull @.str.47, i32 noundef %9) #11
  %.not.i = icmp eq ptr %17, null
  br i1 %.not.i, label %throwUnixException.exit12, label %throwUnixException.exit12.sink.split

throwUnixException.exit:                          ; preds = %14
  %18 = icmp sgt i64 %7, 2147483647
  br i1 %18, label %19, label %throwUnixException.exit12

19:                                               ; preds = %throwUnixException.exit
  %20 = call ptr (ptr, ptr, ptr, ...) @JNU_NewObjectByName(ptr noundef %0, ptr noundef nonnull @.str.46, ptr noundef nonnull @.str.47, i32 noundef 75) #11
  %.not.i11 = icmp eq ptr %20, null
  br i1 %.not.i11, label %throwUnixException.exit12, label %throwUnixException.exit12.sink.split

throwUnixException.exit12.sink.split:             ; preds = %19, %16
  %.sink = phi ptr [ %17, %16 ], [ %20, %19 ]
  %21 = load ptr, ptr %0, align 8
  %22 = getelementptr inbounds i8, ptr %21, i64 104
  %23 = load ptr, ptr %22, align 8
  %24 = call i32 %23(ptr noundef nonnull %0, ptr noundef nonnull %.sink) #11
  br label %throwUnixException.exit12

throwUnixException.exit12:                        ; preds = %throwUnixException.exit12.sink.split, %16, %19, %throwUnixException.exit
  %25 = trunc i64 %7 to i32
  br label %26

26:                                               ; preds = %12, %throwUnixException.exit12
  %.0 = phi i32 [ %25, %throwUnixException.exit12 ], [ -1, %12 ]
  ret i32 %.0
}